target datalayout = "e-m:e-p270:32:32-p271:32:32-p272:64:64-i64:64-i128:128-f80:128-n8:16:32:64-S128"
target triple = "x86_64-pc-linux-gnu"

%"class.std::vector.3" = type { %"struct.std::_Vector_base.4" }
%"struct.std::_Vector_base.4" = type { %"struct.std::_Vector_base<unsigned char, std::allocator<unsigned char>>::_Vector_impl" }
%"struct.std::_Vector_base<unsigned char, std::allocator<unsigned char>>::_Vector_impl" = type { %"struct.std::_Vector_base<unsigned char, std::allocator<unsigned char>>::_Vector_impl_data" }
%"struct.std::_Vector_base<unsigned char, std::allocator<unsigned char>>::_Vector_impl_data" = type { ptr, ptr, ptr }
%"class.cv::QRCodeDecoderImpl" = type { %"class.cv::QRCodeDecoder.base", i32, i32, %"struct.cv::QRCodeDecoderImpl::Bitstream" }
%"class.cv::QRCodeDecoder.base" = type <{ ptr, i32, i32, i8, i8, i8 }>
%"struct.cv::QRCodeDecoderImpl::Bitstream" = type { %"class.std::vector.3", i32, i64 }
%"class.cv::QRCodeDecoder" = type <{ ptr, i32, i32, i8, i8, i8, [5 x i8] }>

; Function Attrs: mustprogress uwtable
define hidden void @_ZN2cv17QRCodeDecoderImpl9decodeECIERNSt7__cxx1112basic_stringIcSt11char_traitsIcESaIcEEE(ptr noundef nonnull align 8 dereferenceable(72) %0, ptr noundef nonnull align 8 dereferenceable(32) %1) #2 align 2 {
  %3 = alloca ptr, align 8
  %4 = alloca ptr, align 8
  %5 = alloca i32, align 4
  %6 = alloca i32, align 4
  %7 = alloca i32, align 4
  store ptr %0, ptr %3, align 8, !tbaa !251
  store ptr %1, ptr %4, align 8, !tbaa !25
  %8 = load ptr, ptr %3, align 8
  call void @llvm.lifetime.start.p0(i64 4, ptr %5) #21
  %9 = getelementptr inbounds nuw %"class.cv::QRCodeDecoderImpl", ptr %8, i32 0, i32 3
  %10 = call noundef i32 @_ZN2cv17QRCodeDecoderImpl9Bitstream4nextEi(ptr noundef nonnull align 8 dereferenceable(40) %9, i32 noundef 8)
  store i32 %10, ptr %5, align 4, !tbaa !29
  call void @llvm.lifetime.start.p0(i64 4, ptr %6) #21
  store i32 0, ptr %6, align 4, !tbaa !29
  br label %11

11:                                               ; preds = %33, %2
  %12 = load i32, ptr %6, align 4, !tbaa !29
  %13 = icmp slt i32 %12, 8
  br i1 %13, label %15, label %14

14:                                               ; preds = %11
  store i32 2, ptr %7, align 4
  br label %36

15:                                               ; preds = %11
  %16 = load i32, ptr %5, align 4, !tbaa !29
  %17 = load i32, ptr %6, align 4, !tbaa !29
  %18 = sub nsw i32 7, %17
  %19 = shl i32 1, %18
  %20 = and i32 %16, %19
  %21 = icmp ne i32 %20, 0
  br i1 %21, label %22, label %31

22:                                               ; preds = %15
  %23 = getelementptr inbounds nuw %"class.cv::QRCodeDecoderImpl", ptr %8, i32 0, i32 3
  %24 = call noundef i32 @_ZN2cv17QRCodeDecoderImpl9Bitstream4nextEi(ptr noundef nonnull align 8 dereferenceable(40) %23, i32 noundef 8)
  %25 = load i32, ptr %6, align 4, !tbaa !29
  %26 = add nsw i32 %25, 1
  %27 = mul nsw i32 %26, 8
  %28 = shl i32 %24, %27
  %29 = load i32, ptr %5, align 4, !tbaa !29
  %30 = or i32 %29, %28
  store i32 %30, ptr %5, align 4, !tbaa !29
  br label %32

31:                                               ; preds = %15
  store i32 2, ptr %7, align 4
  br label %36

32:                                               ; preds = %22
  br label %33

33:                                               ; preds = %32
  %34 = load i32, ptr %6, align 4, !tbaa !29
  %35 = add nsw i32 %34, 1
  store i32 %35, ptr %6, align 4, !tbaa !29
  br label %11, !llvm.loop !344

36:                                               ; preds = %31, %14
  call void @llvm.lifetime.end.p0(i64 4, ptr %6) #21
  br label %37

37:                                               ; preds = %36
  %38 = getelementptr inbounds nuw %"class.cv::QRCodeDecoder", ptr %8, i32 0, i32 2
  %39 = load i32, ptr %38, align 4, !tbaa !260
  %40 = icmp eq i32 %39, 0
  br i1 %40, label %41, label %44

41:                                               ; preds = %37
  %42 = load i32, ptr %5, align 4, !tbaa !29
  %43 = getelementptr inbounds nuw %"class.cv::QRCodeDecoder", ptr %8, i32 0, i32 2
  store i32 %42, ptr %43, align 4, !tbaa !260
  br label %44

44:                                               ; preds = %41, %37
  %45 = load ptr, ptr %4, align 8, !tbaa !25
  call void @_ZN2cv17QRCodeDecoderImpl13decodeSymbolsERNSt7__cxx1112basic_stringIcSt11char_traitsIcESaIcEEE(ptr noundef nonnull align 8 dereferenceable(72) %8, ptr noundef nonnull align 8 dereferenceable(32) %45)
  call void @llvm.lifetime.end.p0(i64 4, ptr %5) #21
  ret void
}