; Function Attrs: mustprogress uwtable
define hidden void @_ZN2cv17QRCodeDecoderImpl9decodeECIERNSt7__cxx1112basic_stringIcSt11char_traitsIcESaIcEEE(ptr noundef nonnull align 8 dereferenceable(72) %0, ptr noundef nonnull align 8 dereferenceable(32) %1) local_unnamed_addr #4 align 2 {
  %3 = getelementptr inbounds nuw i8, ptr %0, i64 32
  %4 = tail call noundef i32 @_ZN2cv17QRCodeDecoderImpl9Bitstream4nextEi(ptr noundef nonnull align 8 dereferenceable(40) %3, i32 noundef 8)
  br label %5

5:                                                ; preds = %2, %9
  %.010 = phi i32 [ 0, %2 ], [ %11, %9 ]
  %.089 = phi i32 [ %4, %2 ], [ %14, %9 ]
  %6 = sub nuw nsw i32 7, %.010
  %7 = shl nuw nsw i32 1, %6
  %8 = and i32 %7, %.089
  %.not = icmp eq i32 %8, 0
  br i1 %.not, label %15, label %9

9:                                                ; preds = %5
  %10 = tail call noundef i32 @_ZN2cv17QRCodeDecoderImpl9Bitstream4nextEi(ptr noundef nonnull align 8 dereferenceable(40) %3, i32 noundef 8)
  %11 = add nuw nsw i32 %.010, 1
  %12 = shl nuw nsw i32 %11, 3
  %13 = shl i32 %10, %12
  %14 = or i32 %13, %.089
  %exitcond.not = icmp eq i32 %11, 8
  br i1 %exitcond.not, label %15, label %5, !llvm.loop !318

15:                                               ; preds = %5, %9
  %.08.lcssa = phi i32 [ %.089, %5 ], [ %14, %9 ]
  %16 = getelementptr inbounds nuw i8, ptr %0, i64 12
  %17 = load i32, ptr %16, align 4, !tbaa !232
  %18 = icmp eq i32 %17, 0
  br i1 %18, label %19, label %20

19:                                               ; preds = %15
  store i32 %.08.lcssa, ptr %16, align 4, !tbaa !232
  br label %20

20:                                               ; preds = %19, %15
  tail call void @_ZN2cv17QRCodeDecoderImpl13decodeSymbolsERNSt7__cxx1112basic_stringIcSt11char_traitsIcESaIcEEE(ptr noundef nonnull align 8 dereferenceable(72) %0, ptr noundef nonnull align 8 dereferenceable(32) %1)
  ret void
}